target datalayout = "e-m:e-p270:32:32-p271:32:32-p272:64:64-i64:64-i128:128-f80:128-n8:16:32:64-S128"
target triple = "x86_64-pc-linux-gnu"

%class.bit_vector = type { i32, i32, ptr }

; Function Attrs: mustprogress nounwind uwtable
define linkonce_odr hidden noundef i32 @_ZN10bit_vector9num_wordsEj(i32 noundef %0) #6 comdat align 2 {
  %2 = alloca i32, align 4
  store i32 %0, ptr %2, align 4, !tbaa !8
  %3 = load i32, ptr %2, align 4, !tbaa !8
  %4 = add i32 %3, 31
  %5 = udiv i32 %4, 32
  ret i32 %5
}

; Function Attrs: mustprogress nounwind uwtable
define linkonce_odr hidden noundef i32 @_ZNK10bit_vector9num_wordsEv(ptr noundef nonnull align 8 dereferenceable(16) %0) #6 comdat align 2 {
  %2 = alloca ptr, align 8
  store ptr %0, ptr %2, align 8, !tbaa !3
  %3 = load ptr, ptr %2, align 8
  %4 = getelementptr inbounds nuw %class.bit_vector, ptr %3, i32 0, i32 0
  %5 = load i32, ptr %4, align 8, !tbaa !16
  %6 = call noundef i32 @_ZN10bit_vector9num_wordsEj(i32 noundef %5)
  ret i32 %6
}

; Function Attrs: mustprogress uwtable
define hidden noundef nonnull align 8 dereferenceable(16) ptr @_ZN10bit_vectoraNERKS_(ptr noundef nonnull align 8 dereferenceable(16) %0, ptr noundef nonnull align 8 dereferenceable(16) %1) #4 align 2 {
  %3 = alloca ptr, align 8
  %4 = alloca ptr, align 8
  %5 = alloca ptr, align 8
  %6 = alloca i32, align 4
  %7 = alloca i32, align 4
  %8 = alloca i32, align 4
  %9 = alloca i32, align 4
  %10 = alloca i32, align 4
  %11 = alloca i32, align 4
  %12 = alloca i32, align 4
  store ptr %0, ptr %4, align 8, !tbaa !3
  store ptr %1, ptr %5, align 8, !tbaa !3
  %13 = load ptr, ptr %4, align 8
  call void @llvm.lifetime.start.p0(i64 4, ptr %6) #3
  %14 = call noundef i32 @_ZNK10bit_vector9num_wordsEv(ptr noundef nonnull align 8 dereferenceable(16) %13)
  store i32 %14, ptr %6, align 4, !tbaa !8
  call void @llvm.lifetime.start.p0(i64 4, ptr %7) #3
  %15 = load ptr, ptr %5, align 8, !tbaa !3
  %16 = call noundef i32 @_ZNK10bit_vector9num_wordsEv(ptr noundef nonnull align 8 dereferenceable(16) %15)
  store i32 %16, ptr %7, align 4, !tbaa !8
  %17 = load i32, ptr %6, align 4, !tbaa !8
  %18 = icmp eq i32 %17, 0
  br i1 %18, label %19, label %20

19:                                               ; preds = %2
  store ptr %13, ptr %3, align 8
  store i32 1, ptr %8, align 4
  br label %141

20:                                               ; preds = %2
  %21 = load i32, ptr %7, align 4, !tbaa !8
  %22 = load i32, ptr %6, align 4, !tbaa !8
  %23 = icmp ugt i32 %21, %22
  br i1 %23, label %24, label %49

24:                                               ; preds = %20
  call void @llvm.lifetime.start.p0(i64 4, ptr %9) #3
  store i32 0, ptr %9, align 4, !tbaa !8
  br label %25

25:                                               ; preds = %45, %24
  %26 = load i32, ptr %9, align 4, !tbaa !8
  %27 = load i32, ptr %6, align 4, !tbaa !8
  %28 = icmp ult i32 %26, %27
  br i1 %28, label %30, label %29

29:                                               ; preds = %25
  store i32 2, ptr %8, align 4
  call void @llvm.lifetime.end.p0(i64 4, ptr %9) #3
  br label %48

30:                                               ; preds = %25
  %31 = load ptr, ptr %5, align 8, !tbaa !3
  %32 = getelementptr inbounds nuw %class.bit_vector, ptr %31, i32 0, i32 2
  %33 = load ptr, ptr %32, align 8, !tbaa !10
  %34 = load i32, ptr %9, align 4, !tbaa !8
  %35 = zext i32 %34 to i64
  %36 = getelementptr inbounds nuw i32, ptr %33, i64 %35
  %37 = load i32, ptr %36, align 4, !tbaa !8
  %38 = getelementptr inbounds nuw %class.bit_vector, ptr %13, i32 0, i32 2
  %39 = load ptr, ptr %38, align 8, !tbaa !10
  %40 = load i32, ptr %9, align 4, !tbaa !8
  %41 = zext i32 %40 to i64
  %42 = getelementptr inbounds nuw i32, ptr %39, i64 %41
  %43 = load i32, ptr %42, align 4, !tbaa !8
  %44 = and i32 %43, %37
  store i32 %44, ptr %42, align 4, !tbaa !8
  br label %45

45:                                               ; preds = %30
  %46 = load i32, ptr %9, align 4, !tbaa !8
  %47 = add i32 %46, 1
  store i32 %47, ptr %9, align 4, !tbaa !8
  br label %25, !llvm.loop !27

48:                                               ; preds = %29
  br label %140

49:                                               ; preds = %20
  call void @llvm.lifetime.start.p0(i64 4, ptr %10) #3
  %50 = load ptr, ptr %5, align 8, !tbaa !3
  %51 = getelementptr inbounds nuw %class.bit_vector, ptr %50, i32 0, i32 0
  %52 = load i32, ptr %51, align 8, !tbaa !16
  %53 = urem i32 %52, 32
  store i32 %53, ptr %10, align 4, !tbaa !8
  call void @llvm.lifetime.start.p0(i64 4, ptr %11) #3
  store i32 0, ptr %11, align 4, !tbaa !8
  %54 = load i32, ptr %10, align 4, !tbaa !8
  %55 = icmp eq i32 %54, 0
  br i1 %55, label %56, label %80

56:                                               ; preds = %49
  store i32 0, ptr %11, align 4, !tbaa !8
  br label %57

57:                                               ; preds = %76, %56
  %58 = load i32, ptr %11, align 4, !tbaa !8
  %59 = load i32, ptr %7, align 4, !tbaa !8
  %60 = icmp ult i32 %58, %59
  br i1 %60, label %61, label %79

61:                                               ; preds = %57
  %62 = load ptr, ptr %5, align 8, !tbaa !3
  %63 = getelementptr inbounds nuw %class.bit_vector, ptr %62, i32 0, i32 2
  %64 = load ptr, ptr %63, align 8, !tbaa !10
  %65 = load i32, ptr %11, align 4, !tbaa !8
  %66 = zext i32 %65 to i64
  %67 = getelementptr inbounds nuw i32, ptr %64, i64 %66
  %68 = load i32, ptr %67, align 4, !tbaa !8
  %69 = getelementptr inbounds nuw %class.bit_vector, ptr %13, i32 0, i32 2
  %70 = load ptr, ptr %69, align 8, !tbaa !10
  %71 = load i32, ptr %11, align 4, !tbaa !8
  %72 = zext i32 %71 to i64
  %73 = getelementptr inbounds nuw i32, ptr %70, i64 %72
  %74 = load i32, ptr %73, align 4, !tbaa !8
  %75 = and i32 %74, %68
  store i32 %75, ptr %73, align 4, !tbaa !8
  br label %76

76:                                               ; preds = %61
  %77 = load i32, ptr %11, align 4, !tbaa !8
  %78 = add i32 %77, 1
  store i32 %78, ptr %11, align 4, !tbaa !8
  br label %57, !llvm.loop !28

79:                                               ; preds = %57
  br label %124

80:                                               ; preds = %49
  store i32 0, ptr %11, align 4, !tbaa !8
  br label %81

81:                                               ; preds = %101, %80
  %82 = load i32, ptr %11, align 4, !tbaa !8
  %83 = load i32, ptr %7, align 4, !tbaa !8
  %84 = sub i32 %83, 1
  %85 = icmp ult i32 %82, %84
  br i1 %85, label %86, label %104

86:                                               ; preds = %81
  %87 = load ptr, ptr %5, align 8, !tbaa !3
  %88 = getelementptr inbounds nuw %class.bit_vector, ptr %87, i32 0, i32 2
  %89 = load ptr, ptr %88, align 8, !tbaa !10
  %90 = load i32, ptr %11, align 4, !tbaa !8
  %91 = zext i32 %90 to i64
  %92 = getelementptr inbounds nuw i32, ptr %89, i64 %91
  %93 = load i32, ptr %92, align 4, !tbaa !8
  %94 = getelementptr inbounds nuw %class.bit_vector, ptr %13, i32 0, i32 2
  %95 = load ptr, ptr %94, align 8, !tbaa !10
  %96 = load i32, ptr %11, align 4, !tbaa !8
  %97 = zext i32 %96 to i64
  %98 = getelementptr inbounds nuw i32, ptr %95, i64 %97
  %99 = load i32, ptr %98, align 4, !tbaa !8
  %100 = and i32 %99, %93
  store i32 %100, ptr %98, align 4, !tbaa !8
  br label %101

101:                                              ; preds = %86
  %102 = load i32, ptr %11, align 4, !tbaa !8
  %103 = add i32 %102, 1
  store i32 %103, ptr %11, align 4, !tbaa !8
  br label %81, !llvm.loop !29

104:                                              ; preds = %81
  call void @llvm.lifetime.start.p0(i64 4, ptr %12) #3
  %105 = load i32, ptr %10, align 4, !tbaa !8
  %106 = shl i32 1, %105
  %107 = sub i32 %106, 1
  store i32 %107, ptr %12, align 4, !tbaa !8
  %108 = load ptr, ptr %5, align 8, !tbaa !3
  %109 = getelementptr inbounds nuw %class.bit_vector, ptr %108, i32 0, i32 2
  %110 = load ptr, ptr %109, align 8, !tbaa !10
  %111 = load i32, ptr %11, align 4, !tbaa !8
  %112 = zext i32 %111 to i64
  %113 = getelementptr inbounds nuw i32, ptr %110, i64 %112
  %114 = load i32, ptr %113, align 4, !tbaa !8
  %115 = load i32, ptr %12, align 4, !tbaa !8
  %116 = and i32 %114, %115
  %117 = getelementptr inbounds nuw %class.bit_vector, ptr %13, i32 0, i32 2
  %118 = load ptr, ptr %117, align 8, !tbaa !10
  %119 = load i32, ptr %11, align 4, !tbaa !8
  %120 = zext i32 %119 to i64
  %121 = getelementptr inbounds nuw i32, ptr %118, i64 %120
  %122 = load i32, ptr %121, align 4, !tbaa !8
  %123 = and i32 %122, %116
  store i32 %123, ptr %121, align 4, !tbaa !8
  call void @llvm.lifetime.end.p0(i64 4, ptr %12) #3
  br label %124

124:                                              ; preds = %104, %79
  %125 = load i32, ptr %7, align 4, !tbaa !8
  store i32 %125, ptr %11, align 4, !tbaa !8
  br label %126

126:                                              ; preds = %136, %124
  %127 = load i32, ptr %11, align 4, !tbaa !8
  %128 = load i32, ptr %6, align 4, !tbaa !8
  %129 = icmp ult i32 %127, %128
  br i1 %129, label %130, label %139

130:                                              ; preds = %126
  %131 = getelementptr inbounds nuw %class.bit_vector, ptr %13, i32 0, i32 2
  %132 = load ptr, ptr %131, align 8, !tbaa !10
  %133 = load i32, ptr %11, align 4, !tbaa !8
  %134 = zext i32 %133 to i64
  %135 = getelementptr inbounds nuw i32, ptr %132, i64 %134
  store i32 0, ptr %135, align 4, !tbaa !8
  br label %136

136:                                              ; preds = %130
  %137 = load i32, ptr %11, align 4, !tbaa !8
  %138 = add i32 %137, 1
  store i32 %138, ptr %11, align 4, !tbaa !8
  br label %126, !llvm.loop !30

139:                                              ; preds = %126
  call void @llvm.lifetime.end.p0(i64 4, ptr %11) #3
  call void @llvm.lifetime.end.p0(i64 4, ptr %10) #3
  br label %140

140:                                              ; preds = %139, %48
  store ptr %13, ptr %3, align 8
  store i32 1, ptr %8, align 4
  br label %141

141:                                              ; preds = %140, %19
  call void @llvm.lifetime.end.p0(i64 4, ptr %7) #3
  call void @llvm.lifetime.end.p0(i64 4, ptr %6) #3
  %142 = load ptr, ptr %3, align 8
  ret ptr %142
}