; Function Attrs: mustprogress nofree norecurse nosync nounwind memory(readwrite, inaccessiblemem: none) uwtable
define hidden noundef nonnull align 8 dereferenceable(16) ptr @_ZN10bit_vectoraNERKS_(ptr noundef nonnull readonly returned align 8 captures(ret: address, provenance) dereferenceable(16) %0, ptr noundef nonnull readonly align 8 captures(none) dereferenceable(16) %1) local_unnamed_addr #6 align 2 {
  %3 = load i32, ptr %0, align 8, !tbaa !11
  %4 = add i32 %3, 31
  %5 = lshr i32 %4, 5
  %6 = load i32, ptr %1, align 8, !tbaa !11
  %7 = add i32 %6, 31
  %8 = lshr i32 %7, 5
  %9 = icmp ult i32 %4, 32
  br i1 %9, label %.loopexit, label %10

10:                                               ; preds = %2
  %11 = icmp samesign ugt i32 %8, %5
  br i1 %11, label %.lr.ph50, label %22

.lr.ph50:                                         ; preds = %10
  %12 = getelementptr inbounds nuw i8, ptr %1, i64 8
  %13 = load ptr, ptr %12, align 8, !tbaa !3
  %14 = getelementptr inbounds nuw i8, ptr %0, i64 8
  %15 = load ptr, ptr %14, align 8, !tbaa !3
  %wide.trip.count65 = zext nneg i32 %5 to i64
  br label %16

16:                                               ; preds = %.lr.ph50, %16
  %indvars.iv62 = phi i64 [ 0, %.lr.ph50 ], [ %indvars.iv.next63, %16 ]
  %17 = getelementptr inbounds nuw i32, ptr %13, i64 %indvars.iv62
  %18 = load i32, ptr %17, align 4, !tbaa !12
  %19 = getelementptr inbounds nuw i32, ptr %15, i64 %indvars.iv62
  %20 = load i32, ptr %19, align 4, !tbaa !12
  %21 = and i32 %20, %18
  store i32 %21, ptr %19, align 4, !tbaa !12
  %indvars.iv.next63 = add nuw nsw i64 %indvars.iv62, 1
  %exitcond66.not = icmp eq i64 %indvars.iv.next63, %wide.trip.count65
  br i1 %exitcond66.not, label %.loopexit, label %16, !llvm.loop !19

22:                                               ; preds = %10
  %23 = and i32 %6, 31
  %24 = icmp eq i32 %23, 0
  br i1 %24, label %.preheader40, label %.preheader42

.preheader42:                                     ; preds = %22
  %25 = add nsw i32 %8, -1
  %.not = icmp eq i32 %25, 0
  %.phi.trans.insert = getelementptr inbounds nuw i8, ptr %1, i64 8
  %.pre = load ptr, ptr %.phi.trans.insert, align 8, !tbaa !3
  %.phi.trans.insert67 = getelementptr inbounds nuw i8, ptr %0, i64 8
  %.pre68 = load ptr, ptr %.phi.trans.insert67, align 8, !tbaa !3
  br i1 %.not, label %._crit_edge, label %.lr.ph

.lr.ph:                                           ; preds = %.preheader42
  %wide.trip.count = zext i32 %25 to i64
  br label %36

.preheader40:                                     ; preds = %22
  %.not51 = icmp ult i32 %7, 32
  br i1 %.not51, label %.loopexit41, label %.lr.ph45

.lr.ph45:                                         ; preds = %.preheader40
  %26 = getelementptr inbounds nuw i8, ptr %1, i64 8
  %27 = load ptr, ptr %26, align 8, !tbaa !3
  %28 = getelementptr inbounds nuw i8, ptr %0, i64 8
  %29 = load ptr, ptr %28, align 8, !tbaa !3
  %wide.trip.count58 = zext nneg i32 %8 to i64
  br label %30

30:                                               ; preds = %.lr.ph45, %30
  %indvars.iv55 = phi i64 [ 0, %.lr.ph45 ], [ %indvars.iv.next56, %30 ]
  %31 = getelementptr inbounds nuw i32, ptr %27, i64 %indvars.iv55
  %32 = load i32, ptr %31, align 4, !tbaa !12
  %33 = getelementptr inbounds nuw i32, ptr %29, i64 %indvars.iv55
  %34 = load i32, ptr %33, align 4, !tbaa !12
  %35 = and i32 %34, %32
  store i32 %35, ptr %33, align 4, !tbaa !12
  %indvars.iv.next56 = add nuw nsw i64 %indvars.iv55, 1
  %exitcond59.not = icmp eq i64 %indvars.iv.next56, %wide.trip.count58
  br i1 %exitcond59.not, label %.loopexit41, label %30, !llvm.loop !20

36:                                               ; preds = %.lr.ph, %36
  %indvars.iv = phi i64 [ 0, %.lr.ph ], [ %indvars.iv.next, %36 ]
  %37 = getelementptr inbounds nuw i32, ptr %.pre, i64 %indvars.iv
  %38 = load i32, ptr %37, align 4, !tbaa !12
  %39 = getelementptr inbounds nuw i32, ptr %.pre68, i64 %indvars.iv
  %40 = load i32, ptr %39, align 4, !tbaa !12
  %41 = and i32 %40, %38
  store i32 %41, ptr %39, align 4, !tbaa !12
  %indvars.iv.next = add nuw nsw i64 %indvars.iv, 1
  %exitcond.not = icmp eq i64 %indvars.iv.next, %wide.trip.count
  br i1 %exitcond.not, label %._crit_edge.loopexit, label %36, !llvm.loop !21

._crit_edge.loopexit:                             ; preds = %36
  %42 = zext i32 %25 to i64
  br label %._crit_edge

._crit_edge:                                      ; preds = %.preheader42, %._crit_edge.loopexit
  %.1.lcssa = phi i64 [ %42, %._crit_edge.loopexit ], [ 0, %.preheader42 ]
  %notmask = shl nsw i32 -1, %23
  %43 = xor i32 %notmask, -1
  %44 = getelementptr inbounds nuw i32, ptr %.pre, i64 %.1.lcssa
  %45 = load i32, ptr %44, align 4, !tbaa !12
  %46 = and i32 %45, %43
  %47 = getelementptr inbounds nuw i32, ptr %.pre68, i64 %.1.lcssa
  %48 = load i32, ptr %47, align 4, !tbaa !12
  %49 = and i32 %46, %48
  store i32 %49, ptr %47, align 4, !tbaa !12
  br label %.loopexit41

.loopexit41:                                      ; preds = %30, %.preheader40, %._crit_edge
  %50 = icmp samesign ult i32 %8, %5
  br i1 %50, label %.lr.ph48, label %.loopexit

.lr.ph48:                                         ; preds = %.loopexit41
  %51 = getelementptr inbounds nuw i8, ptr %0, i64 8
  %52 = load ptr, ptr %51, align 8, !tbaa !3
  %53 = lshr i32 %7, 3
  %54 = and i32 %53, 536870908
  %55 = zext nneg i32 %54 to i64
  %scevgep = getelementptr nuw i8, ptr %52, i64 %55
  %56 = xor i32 %8, -1
  %57 = add nsw i32 %5, %56
  %58 = zext i32 %57 to i64
  %59 = shl nuw nsw i64 %58, 2
  %60 = add nuw nsw i64 %59, 4
  tail call void @llvm.memset.p0.i64(ptr noundef nonnull align 4 dereferenceable(1) %scevgep, i8 0, i64 %60, i1 false), !tbaa !12
  br label %.loopexit

.loopexit:                                        ; preds = %16, %.lr.ph48, %.loopexit41, %2
  ret ptr %0
}